
main:     file format elf32-littleriscv


Disassembly of section .text:

00010054 <main>:
   10054:	fe010113          	addi	sp,sp,-32
   10058:	00812e23          	sw	s0,28(sp)
   1005c:	02010413          	addi	s0,sp,32
   10060:	080547b7          	lui	a5,0x8054
   10064:	02078793          	addi	a5,a5,32 # 8054020 <__global_pointer$+0x80426fc>
   10068:	fef42623          	sw	a5,-20(s0)
   1006c:	300007b7          	lui	a5,0x30000
   10070:	fec42703          	lw	a4,-20(s0)
   10074:	00e7a023          	sw	a4,0(a5) # 30000000 <__global_pointer$+0x2ffee6dc>
   10078:	180547b7          	lui	a5,0x18054
   1007c:	02078793          	addi	a5,a5,32 # 18054020 <__global_pointer$+0x180426fc>
   10080:	fef42623          	sw	a5,-20(s0)
   10084:	300007b7          	lui	a5,0x30000
   10088:	fec42703          	lw	a4,-20(s0)
   1008c:	00e7a023          	sw	a4,0(a5) # 30000000 <__global_pointer$+0x2ffee6dc>
   10090:	220087b7          	lui	a5,0x22008
   10094:	fef42623          	sw	a5,-20(s0)
   10098:	300007b7          	lui	a5,0x30000
   1009c:	fec42703          	lw	a4,-20(s0)
   100a0:	00e7a023          	sw	a4,0(a5) # 30000000 <__global_pointer$+0x2ffee6dc>
   100a4:	3a2007b7          	lui	a5,0x3a200
   100a8:	02878793          	addi	a5,a5,40 # 3a200028 <__global_pointer$+0x3a1ee704>
   100ac:	fef42623          	sw	a5,-20(s0)
   100b0:	300007b7          	lui	a5,0x30000
   100b4:	fec42703          	lw	a4,-20(s0)
   100b8:	00e7a023          	sw	a4,0(a5) # 30000000 <__global_pointer$+0x2ffee6dc>
   100bc:	080547b7          	lui	a5,0x8054
   100c0:	02878793          	addi	a5,a5,40 # 8054028 <__global_pointer$+0x8042704>
   100c4:	fef42623          	sw	a5,-20(s0)
   100c8:	300007b7          	lui	a5,0x30000
   100cc:	fec42703          	lw	a4,-20(s0)
   100d0:	00e7a023          	sw	a4,0(a5) # 30000000 <__global_pointer$+0x2ffee6dc>
   100d4:	100087b7          	lui	a5,0x10008
   100d8:	fef42623          	sw	a5,-20(s0)
   100dc:	300007b7          	lui	a5,0x30000
   100e0:	fec42703          	lw	a4,-20(s0)
   100e4:	00e7a023          	sw	a4,0(a5) # 30000000 <__global_pointer$+0x2ffee6dc>
   100e8:	2a1007b7          	lui	a5,0x2a100
   100ec:	00878793          	addi	a5,a5,8 # 2a100008 <__global_pointer$+0x2a0ee6e4>
   100f0:	fef42623          	sw	a5,-20(s0)
   100f4:	300007b7          	lui	a5,0x30000
   100f8:	fec42703          	lw	a4,-20(s0)
   100fc:	00e7a023          	sw	a4,0(a5) # 30000000 <__global_pointer$+0x2ffee6dc>
   10100:	00000793          	li	a5,0
   10104:	00078513          	mv	a0,a5
   10108:	01c12403          	lw	s0,28(sp)
   1010c:	02010113          	addi	sp,sp,32
   10110:	00008067          	ret

00010114 <_start>:
   10114:	f41ff0ef          	jal	ra,10054 <main>
   10118:	05d00893          	li	a7,93
   1011c:	00000513          	li	a0,0
   10120:	00000073          	ecall
