
main:     file format elf32-littleriscv


Disassembly of section .text:

00010054 <main>:
   10054:	fe010113          	addi	sp,sp,-32
   10058:	00112e23          	sw	ra,28(sp)
   1005c:	00812c23          	sw	s0,24(sp)
   10060:	02010413          	addi	s0,sp,32
   10064:	fe042623          	sw	zero,-20(s0)
   10068:	fec42783          	lw	a5,-20(s0)
   1006c:	fef42423          	sw	a5,-24(s0)
   10070:	000087b7          	lui	a5,0x8
   10074:	fef42223          	sw	a5,-28(s0)
   10078:	08000693          	li	a3,128
   1007c:	fe442603          	lw	a2,-28(s0)
   10080:	fe842583          	lw	a1,-24(s0)
   10084:	fec42503          	lw	a0,-20(s0)
   10088:	01c000ef          	jal	ra,100a4 <matrix_multi>
   1008c:	00000793          	li	a5,0
   10090:	00078513          	mv	a0,a5
   10094:	01c12083          	lw	ra,28(sp)
   10098:	01812403          	lw	s0,24(sp)
   1009c:	02010113          	addi	sp,sp,32
   100a0:	00008067          	ret

000100a4 <matrix_multi>:
   100a4:	fd010113          	addi	sp,sp,-48
   100a8:	02112623          	sw	ra,44(sp)
   100ac:	02812423          	sw	s0,40(sp)
   100b0:	03010413          	addi	s0,sp,48
   100b4:	fca42e23          	sw	a0,-36(s0)
   100b8:	fcb42c23          	sw	a1,-40(s0)
   100bc:	fcc42a23          	sw	a2,-44(s0)
   100c0:	fcd42823          	sw	a3,-48(s0)
   100c4:	fe042623          	sw	zero,-20(s0)
   100c8:	1c80006f          	j	10290 <matrix_multi+0x1ec>
   100cc:	fe042423          	sw	zero,-24(s0)
   100d0:	1a80006f          	j	10278 <matrix_multi+0x1d4>
   100d4:	fd042583          	lw	a1,-48(s0)
   100d8:	fec42503          	lw	a0,-20(s0)
   100dc:	1e8000ef          	jal	ra,102c4 <__mulsi3>
   100e0:	00050793          	mv	a5,a0
   100e4:	00279793          	slli	a5,a5,0x2
   100e8:	fdc42703          	lw	a4,-36(s0)
   100ec:	00f707b3          	add	a5,a4,a5
   100f0:	fef42223          	sw	a5,-28(s0)
   100f4:	fd042783          	lw	a5,-48(s0)
   100f8:	00f79713          	slli	a4,a5,0xf
   100fc:	01ff87b7          	lui	a5,0x1ff8
   10100:	00f77733          	and	a4,a4,a5
   10104:	fe442783          	lw	a5,-28(s0)
   10108:	00c7d793          	srli	a5,a5,0xc
   1010c:	01f7f793          	andi	a5,a5,31
   10110:	00f76733          	or	a4,a4,a5
   10114:	080027b7          	lui	a5,0x8002
   10118:	02078793          	addi	a5,a5,32 # 8002020 <__global_pointer$+0x7ff0546>
   1011c:	00f707b3          	add	a5,a4,a5
   10120:	fef42023          	sw	a5,-32(s0)
   10124:	300007b7          	lui	a5,0x30000
   10128:	fe042703          	lw	a4,-32(s0)
   1012c:	00e7a023          	sw	a4,0(a5) # 30000000 <__global_pointer$+0x2ffee526>
   10130:	fe442703          	lw	a4,-28(s0)
   10134:	000017b7          	lui	a5,0x1
   10138:	fff78793          	addi	a5,a5,-1 # fff <main-0xf055>
   1013c:	00f777b3          	and	a5,a4,a5
   10140:	fef42023          	sw	a5,-32(s0)
   10144:	300007b7          	lui	a5,0x30000
   10148:	fe042703          	lw	a4,-32(s0)
   1014c:	00e7a023          	sw	a4,0(a5) # 30000000 <__global_pointer$+0x2ffee526>
   10150:	fe842783          	lw	a5,-24(s0)
   10154:	00279793          	slli	a5,a5,0x2
   10158:	fd842703          	lw	a4,-40(s0)
   1015c:	00f707b3          	add	a5,a4,a5
   10160:	fef42223          	sw	a5,-28(s0)
   10164:	fd042783          	lw	a5,-48(s0)
   10168:	00f79713          	slli	a4,a5,0xf
   1016c:	01ff87b7          	lui	a5,0x1ff8
   10170:	00f77733          	and	a4,a4,a5
   10174:	fd042783          	lw	a5,-48(s0)
   10178:	00579693          	slli	a3,a5,0x5
   1017c:	000017b7          	lui	a5,0x1
   10180:	fe078793          	addi	a5,a5,-32 # fe0 <main-0xf074>
   10184:	00f6f7b3          	and	a5,a3,a5
   10188:	00f76733          	or	a4,a4,a5
   1018c:	fe442783          	lw	a5,-28(s0)
   10190:	00c7d793          	srli	a5,a5,0xc
   10194:	01f7f793          	andi	a5,a5,31
   10198:	00f70733          	add	a4,a4,a5
   1019c:	180027b7          	lui	a5,0x18002
   101a0:	00f707b3          	add	a5,a4,a5
   101a4:	fef42023          	sw	a5,-32(s0)
   101a8:	300007b7          	lui	a5,0x30000
   101ac:	fe042703          	lw	a4,-32(s0)
   101b0:	00e7a023          	sw	a4,0(a5) # 30000000 <__global_pointer$+0x2ffee526>
   101b4:	fe442703          	lw	a4,-28(s0)
   101b8:	000017b7          	lui	a5,0x1
   101bc:	fff78793          	addi	a5,a5,-1 # fff <main-0xf055>
   101c0:	00f777b3          	and	a5,a4,a5
   101c4:	fef42023          	sw	a5,-32(s0)
   101c8:	300007b7          	lui	a5,0x30000
   101cc:	fe042703          	lw	a4,-32(s0)
   101d0:	00e7a023          	sw	a4,0(a5) # 30000000 <__global_pointer$+0x2ffee526>
   101d4:	220087b7          	lui	a5,0x22008
   101d8:	fef42023          	sw	a5,-32(s0)
   101dc:	300007b7          	lui	a5,0x30000
   101e0:	fe042703          	lw	a4,-32(s0)
   101e4:	00e7a023          	sw	a4,0(a5) # 30000000 <__global_pointer$+0x2ffee526>
   101e8:	302187b7          	lui	a5,0x30218
   101ec:	fef42023          	sw	a5,-32(s0)
   101f0:	300007b7          	lui	a5,0x30000
   101f4:	fe042703          	lw	a4,-32(s0)
   101f8:	00e7a023          	sw	a4,0(a5) # 30000000 <__global_pointer$+0x2ffee526>
   101fc:	fd042583          	lw	a1,-48(s0)
   10200:	fec42503          	lw	a0,-20(s0)
   10204:	0c0000ef          	jal	ra,102c4 <__mulsi3>
   10208:	00050793          	mv	a5,a0
   1020c:	00078713          	mv	a4,a5
   10210:	fe842783          	lw	a5,-24(s0)
   10214:	00f707b3          	add	a5,a4,a5
   10218:	00279793          	slli	a5,a5,0x2
   1021c:	fd442703          	lw	a4,-44(s0)
   10220:	00f707b3          	add	a5,a4,a5
   10224:	fef42223          	sw	a5,-28(s0)
   10228:	fe442783          	lw	a5,-28(s0)
   1022c:	00c7d793          	srli	a5,a5,0xc
   10230:	01f7f713          	andi	a4,a5,31
   10234:	4a3027b7          	lui	a5,0x4a302
   10238:	00f707b3          	add	a5,a4,a5
   1023c:	fef42023          	sw	a5,-32(s0)
   10240:	300007b7          	lui	a5,0x30000
   10244:	fe042703          	lw	a4,-32(s0)
   10248:	00e7a023          	sw	a4,0(a5) # 30000000 <__global_pointer$+0x2ffee526>
   1024c:	fe442703          	lw	a4,-28(s0)
   10250:	000017b7          	lui	a5,0x1
   10254:	fff78793          	addi	a5,a5,-1 # fff <main-0xf055>
   10258:	00f777b3          	and	a5,a4,a5
   1025c:	fef42023          	sw	a5,-32(s0)
   10260:	300007b7          	lui	a5,0x30000
   10264:	fe042703          	lw	a4,-32(s0)
   10268:	00e7a023          	sw	a4,0(a5) # 30000000 <__global_pointer$+0x2ffee526>
   1026c:	fe842783          	lw	a5,-24(s0)
   10270:	00178793          	addi	a5,a5,1
   10274:	fef42423          	sw	a5,-24(s0)
   10278:	fe842703          	lw	a4,-24(s0)
   1027c:	fd042783          	lw	a5,-48(s0)
   10280:	e4f76ae3          	bltu	a4,a5,100d4 <matrix_multi+0x30>
   10284:	fec42783          	lw	a5,-20(s0)
   10288:	00178793          	addi	a5,a5,1
   1028c:	fef42623          	sw	a5,-20(s0)
   10290:	fec42703          	lw	a4,-20(s0)
   10294:	fd042783          	lw	a5,-48(s0)
   10298:	e2f76ae3          	bltu	a4,a5,100cc <matrix_multi+0x28>
   1029c:	00000013          	nop
   102a0:	00000013          	nop
   102a4:	02c12083          	lw	ra,44(sp)
   102a8:	02812403          	lw	s0,40(sp)
   102ac:	03010113          	addi	sp,sp,48
   102b0:	00008067          	ret

000102b4 <_start>:
   102b4:	da1ff0ef          	jal	ra,10054 <main>
   102b8:	05d00893          	li	a7,93
   102bc:	00000513          	li	a0,0
   102c0:	00000073          	ecall

000102c4 <__mulsi3>:
   102c4:	862a                	mv	a2,a0
   102c6:	4501                	li	a0,0
   102c8:	0015f693          	andi	a3,a1,1
   102cc:	c291                	beqz	a3,102d0 <__mulsi3+0xc>
   102ce:	9532                	add	a0,a0,a2
   102d0:	8185                	srli	a1,a1,0x1
   102d2:	0606                	slli	a2,a2,0x1
   102d4:	f9f5                	bnez	a1,102c8 <__mulsi3+0x4>
   102d6:	8082                	ret
	...
