
main:     file format elf32-littleriscv


Disassembly of section .text:

00010074 <main>:
   10074:	fe010113          	addi	sp,sp,-32
   10078:	00112e23          	sw	ra,28(sp)
   1007c:	00812c23          	sw	s0,24(sp)
   10080:	02010413          	addi	s0,sp,32
   10084:	00600793          	li	a5,6
   10088:	fef42623          	sw	a5,-20(s0)
   1008c:	00700793          	li	a5,7
   10090:	fef42423          	sw	a5,-24(s0)
   10094:	fec42703          	lw	a4,-20(s0)
   10098:	fe842783          	lw	a5,-24(s0)
   1009c:	00f70733          	add	a4,a4,a5
   100a0:	000117b7          	lui	a5,0x11
   100a4:	15c7a783          	lw	a5,348(a5) # 1115c <x>
   100a8:	00f70733          	add	a4,a4,a5
   100ac:	000117b7          	lui	a5,0x11
   100b0:	1607a783          	lw	a5,352(a5) # 11160 <_edata>
   100b4:	00f707b3          	add	a5,a4,a5
   100b8:	fef42623          	sw	a5,-20(s0)
   100bc:	fec42503          	lw	a0,-20(s0)
   100c0:	02c000ef          	jal	ra,100ec <sum>
   100c4:	fea42623          	sw	a0,-20(s0)
   100c8:	200007b7          	lui	a5,0x20000
   100cc:	05800713          	li	a4,88
   100d0:	00e78023          	sb	a4,0(a5) # 20000000 <__global_pointer$+0x1ffee6a4>
   100d4:	fec42783          	lw	a5,-20(s0)
   100d8:	00078513          	mv	a0,a5
   100dc:	01c12083          	lw	ra,28(sp)
   100e0:	01812403          	lw	s0,24(sp)
   100e4:	02010113          	addi	sp,sp,32
   100e8:	00008067          	ret

000100ec <sum>:
   100ec:	fd010113          	addi	sp,sp,-48
   100f0:	02812623          	sw	s0,44(sp)
   100f4:	03010413          	addi	s0,sp,48
   100f8:	fca42e23          	sw	a0,-36(s0)
   100fc:	fdc42783          	lw	a5,-36(s0)
   10100:	fef42623          	sw	a5,-20(s0)
   10104:	00100793          	li	a5,1
   10108:	fef42423          	sw	a5,-24(s0)
   1010c:	0200006f          	j	1012c <sum+0x40>
   10110:	fec42703          	lw	a4,-20(s0)
   10114:	fe842783          	lw	a5,-24(s0)
   10118:	00f707b3          	add	a5,a4,a5
   1011c:	fef42623          	sw	a5,-20(s0)
   10120:	fe842783          	lw	a5,-24(s0)
   10124:	00178793          	addi	a5,a5,1
   10128:	fef42423          	sw	a5,-24(s0)
   1012c:	fe842703          	lw	a4,-24(s0)
   10130:	fdc42783          	lw	a5,-36(s0)
   10134:	fcf74ee3          	blt	a4,a5,10110 <sum+0x24>
   10138:	fec42783          	lw	a5,-20(s0)
   1013c:	00078513          	mv	a0,a5
   10140:	02c12403          	lw	s0,44(sp)
   10144:	03010113          	addi	sp,sp,48
   10148:	00008067          	ret

0001014c <_start>:
   1014c:	f29ff0ef          	jal	ra,10074 <main>
   10150:	05d00893          	li	a7,93
   10154:	00000513          	li	a0,0
   10158:	00000073          	ecall
